target datalayout = "e-m:e-p270:32:32-p271:32:32-p272:64:64-i64:64-i128:128-f80:128-n8:16:32:64-S128"
target triple = "x86_64-unknown-linux-gnu"

%struct.MSGUID = type { i32, i16, i16, [8 x i8] }
%struct.BDRVVHDXState = type <{ %struct.CoMutex, i32, [4 x i8], [2 x ptr], %struct.VHDXRegionTableHeader, %struct.VHDXRegionTableEntry, %struct.VHDXRegionTableEntry, %struct.VHDXMetadataTableHeader, %struct.VHDXMetadataEntries, %struct.VHDXFileParameters, [2 x i8], i32, i32, i32, i32, [4 x i8], i64, i32, i32, i64, i32, i32, i32, [4 x i8], ptr, i64, i8, %struct.MSGUID, [7 x i8], %struct.VHDXLogEntries, %struct.VHDXParentLocatorHeader, [4 x i8], ptr, ptr, i8, [7 x i8], %struct.anon.1 }>
%struct.CoMutex = type { i32, ptr, %struct.anon.0, %struct.anon.0, i32, i32, ptr }
%struct.anon.0 = type { ptr }
%struct.VHDXRegionTableHeader = type { i32, i32, i32, i32 }
%struct.VHDXRegionTableEntry = type { %struct.MSGUID, i64, i32, i32 }
%struct.VHDXMetadataTableHeader = type { i64, i16, i16, [5 x i32] }
%struct.VHDXMetadataEntries = type <{ %struct.VHDXMetadataTableEntry, %struct.VHDXMetadataTableEntry, %struct.VHDXMetadataTableEntry, %struct.VHDXMetadataTableEntry, %struct.VHDXMetadataTableEntry, %struct.VHDXMetadataTableEntry, i16 }>
%struct.VHDXMetadataTableEntry = type { %struct.MSGUID, i32, i32, i32, i32 }
%struct.VHDXFileParameters = type { i32, i32 }
%struct.VHDXLogEntries = type { i64, i64, i32, i32, ptr, ptr, i64, i32 }
%struct.VHDXParentLocatorHeader = type { %struct.MSGUID, i16, i16 }
%struct.anon.1 = type { ptr }

; Function Attrs: nounwind sspstrong uwtable
define internal void @vhdx_calc_bat_entries(ptr noundef %s) #0 {
entry:
  %s.addr = alloca ptr, align 8
  %data_blocks_cnt = alloca i32, align 4
  %bitmap_blocks_cnt = alloca i32, align 4
  store ptr %s, ptr %s.addr, align 8
  %0 = load ptr, ptr %s.addr, align 8
  %virtual_disk_size = getelementptr inbounds %struct.BDRVVHDXState, ptr %0, i32 0, i32 16
  %1 = load i64, ptr %virtual_disk_size, align 8
  %2 = load ptr, ptr %s.addr, align 8
  %block_size = getelementptr inbounds %struct.BDRVVHDXState, ptr %2, i32 0, i32 11
  %3 = load i32, ptr %block_size, align 4
  %conv = zext i32 %3 to i64
  %add = add i64 %1, %conv
  %sub = sub i64 %add, 1
  %4 = load ptr, ptr %s.addr, align 8
  %block_size1 = getelementptr inbounds %struct.BDRVVHDXState, ptr %4, i32 0, i32 11
  %5 = load i32, ptr %block_size1, align 4
  %conv2 = zext i32 %5 to i64
  %div = udiv i64 %sub, %conv2
  %conv3 = trunc i64 %div to i32
  store i32 %conv3, ptr %data_blocks_cnt, align 4
  %6 = load i32, ptr %data_blocks_cnt, align 4
  %conv4 = zext i32 %6 to i64
  %7 = load ptr, ptr %s.addr, align 8
  %chunk_ratio = getelementptr inbounds %struct.BDRVVHDXState, ptr %7, i32 0, i32 19
  %8 = load i64, ptr %chunk_ratio, align 8
  %add5 = add i64 %conv4, %8
  %sub6 = sub i64 %add5, 1
  %9 = load ptr, ptr %s.addr, align 8
  %chunk_ratio7 = getelementptr inbounds %struct.BDRVVHDXState, ptr %9, i32 0, i32 19
  %10 = load i64, ptr %chunk_ratio7, align 8
  %div8 = udiv i64 %sub6, %10
  %conv9 = trunc i64 %div8 to i32
  store i32 %conv9, ptr %bitmap_blocks_cnt, align 4
  %11 = load ptr, ptr %s.addr, align 8
  %parent_entries = getelementptr inbounds %struct.BDRVVHDXState, ptr %11, i32 0, i32 32
  %12 = load ptr, ptr %parent_entries, align 8
  %tobool = icmp ne ptr %12, null
  br i1 %tobool, label %if.then, label %if.else

if.then:                                          ; preds = %entry
  %13 = load i32, ptr %bitmap_blocks_cnt, align 4
  %conv10 = zext i32 %13 to i64
  %14 = load ptr, ptr %s.addr, align 8
  %chunk_ratio11 = getelementptr inbounds %struct.BDRVVHDXState, ptr %14, i32 0, i32 19
  %15 = load i64, ptr %chunk_ratio11, align 8
  %add12 = add i64 %15, 1
  %mul = mul i64 %conv10, %add12
  %conv13 = trunc i64 %mul to i32
  %16 = load ptr, ptr %s.addr, align 8
  %bat_entries = getelementptr inbounds %struct.BDRVVHDXState, ptr %16, i32 0, i32 22
  store i32 %conv13, ptr %bat_entries, align 8
  br label %if.end

if.else:                                          ; preds = %entry
  %17 = load i32, ptr %data_blocks_cnt, align 4
  %18 = load i32, ptr %data_blocks_cnt, align 4
  %sub14 = sub i32 %18, 1
  %19 = load ptr, ptr %s.addr, align 8
  %chunk_ratio_bits = getelementptr inbounds %struct.BDRVVHDXState, ptr %19, i32 0, i32 20
  %20 = load i32, ptr %chunk_ratio_bits, align 8
  %shr = lshr i32 %sub14, %20
  %add15 = add i32 %17, %shr
  %21 = load ptr, ptr %s.addr, align 8
  %bat_entries16 = getelementptr inbounds %struct.BDRVVHDXState, ptr %21, i32 0, i32 22
  store i32 %add15, ptr %bat_entries16, align 8
  br label %if.end

if.end:                                           ; preds = %if.else, %if.then
  ret void
}