; Function Attrs: mustprogress nofree norecurse nosync nounwind sspstrong willreturn memory(argmem: readwrite) uwtable
define internal fastcc void @vhdx_calc_bat_entries(ptr noundef captures(none) initializes((440, 444)) %s) unnamed_addr #8 {
entry:
  %virtual_disk_size = getelementptr inbounds nuw i8, ptr %s, i64 408
  %0 = load i64, ptr %virtual_disk_size, align 8
  %block_size = getelementptr inbounds nuw i8, ptr %s, i64 388
  %1 = load i32, ptr %block_size, align 4
  %conv = zext i32 %1 to i64
  %add = add i64 %0, -1
  %sub = add i64 %add, %conv
  %div = udiv i64 %sub, %conv
  %parent_entries = getelementptr inbounds nuw i8, ptr %s, i64 568
  %2 = load ptr, ptr %parent_entries, align 8
  %tobool.not = icmp eq ptr %2, null
  br i1 %tobool.not, label %if.else, label %if.then

if.then:                                          ; preds = %entry
  %conv4 = and i64 %div, 4294967295
  %chunk_ratio = getelementptr inbounds nuw i8, ptr %s, i64 424
  %3 = load i64, ptr %chunk_ratio, align 8
  %add5 = add nsw i64 %conv4, -1
  %sub6 = add i64 %add5, %3
  %div8 = udiv i64 %sub6, %3
  %add12 = add i64 %3, 1
  %mul = mul i64 %div8, %add12
  %conv13 = trunc i64 %mul to i32
  br label %if.end

if.else:                                          ; preds = %entry
  %conv3 = trunc i64 %div to i32
  %sub14 = add i32 %conv3, -1
  %chunk_ratio_bits = getelementptr inbounds nuw i8, ptr %s, i64 432
  %4 = load i32, ptr %chunk_ratio_bits, align 8
  %shr = lshr i32 %sub14, %4
  %add15 = add i32 %shr, %conv3
  br label %if.end

if.end:                                           ; preds = %if.else, %if.then
  %conv13.sink = phi i32 [ %add15, %if.else ], [ %conv13, %if.then ]
  %5 = getelementptr inbounds nuw i8, ptr %s, i64 440
  store i32 %conv13.sink, ptr %5, align 8
  ret void
}